target datalayout = "e-m:e-p270:32:32-p271:32:32-p272:64:64-i64:64-i128:128-f80:128-n8:16:32:64-S128"
target triple = "x86_64-pc-linux-gnu"

%struct._JPLISEnvironment = type { ptr, ptr, i8 }
%struct._JPLISAgent = type { ptr, %struct._JPLISEnvironment, %struct._JPLISEnvironment, ptr, ptr, ptr, ptr, i8, i8, i8, i8, ptr, ptr, ptr, i8 }

; Function Attrs: nounwind uwtable
define hidden void @deallocateCommandLineData(ptr noundef %0) #0 {
  %2 = alloca ptr, align 8
  store ptr %0, ptr %2, align 8
  %3 = load ptr, ptr %2, align 8
  %4 = getelementptr inbounds %struct._JPLISAgent, ptr %3, i32 0, i32 1
  %5 = getelementptr inbounds %struct._JPLISEnvironment, ptr %4, i32 0, i32 0
  %6 = load ptr, ptr %5, align 8
  %7 = load ptr, ptr %2, align 8
  %8 = getelementptr inbounds %struct._JPLISAgent, ptr %7, i32 0, i32 11
  %9 = load ptr, ptr %8, align 8
  call void @deallocate(ptr noundef %6, ptr noundef %9)
  %10 = load ptr, ptr %2, align 8
  %11 = getelementptr inbounds %struct._JPLISAgent, ptr %10, i32 0, i32 1
  %12 = getelementptr inbounds %struct._JPLISEnvironment, ptr %11, i32 0, i32 0
  %13 = load ptr, ptr %12, align 8
  %14 = load ptr, ptr %2, align 8
  %15 = getelementptr inbounds %struct._JPLISAgent, ptr %14, i32 0, i32 12
  %16 = load ptr, ptr %15, align 8
  call void @deallocate(ptr noundef %13, ptr noundef %16)
  %17 = load ptr, ptr %2, align 8
  %18 = getelementptr inbounds %struct._JPLISAgent, ptr %17, i32 0, i32 11
  store ptr null, ptr %18, align 8
  %19 = load ptr, ptr %2, align 8
  %20 = getelementptr inbounds %struct._JPLISAgent, ptr %19, i32 0, i32 12
  store ptr null, ptr %20, align 8
  ret void
}