; Function Attrs: nounwind uwtable
define hidden void @deallocateCommandLineData(ptr nocapture noundef %0) local_unnamed_addr #0 {
  %2 = getelementptr inbounds i8, ptr %0, i64 8
  %3 = load ptr, ptr %2, align 8
  %4 = getelementptr inbounds i8, ptr %0, i64 96
  %5 = load ptr, ptr %4, align 8
  tail call void @deallocate(ptr noundef %3, ptr noundef %5) #10
  %6 = load ptr, ptr %2, align 8
  %7 = getelementptr inbounds i8, ptr %0, i64 104
  %8 = load ptr, ptr %7, align 8
  tail call void @deallocate(ptr noundef %6, ptr noundef %8) #10
  tail call void @llvm.memset.p0.i64(ptr noundef nonnull align 8 dereferenceable(16) %4, i8 0, i64 16, i1 false)
  ret void
}